; Function Attrs: nounwind uwtable
define dso_local range(i32 5, 4) i32 @Curl_rand(ptr noundef %0, ptr noundef writeonly captures(none) %1, i64 noundef %2) local_unnamed_addr #0 {
  %4 = alloca i32, align 4
  %.not22 = icmp eq i64 %2, 0
  br i1 %.not22, label %._crit_edge, label %.lr.ph

.loopexit:                                        ; preds = %.preheader
  %5 = sub i64 %.01224, %6
  %.not = icmp eq i64 %5, 0
  br i1 %.not, label %._crit_edge, label %.lr.ph, !llvm.loop !5

.lr.ph:                                           ; preds = %3, %.loopexit
  %.01224 = phi i64 [ %5, %.loopexit ], [ %2, %3 ]
  %.01323 = phi ptr [ %10, %.loopexit ], [ %1, %3 ]
  %6 = call i64 @llvm.umin.i64(i64 %.01224, i64 4)
  %7 = call fastcc i32 @randit(ptr noundef %0, ptr noundef %4)
  %.not17 = icmp eq i32 %7, 0
  br i1 %.not17, label %.preheader.preheader, label %._crit_edge

.preheader.preheader:                             ; preds = %.lr.ph
  %.pre = load i32, ptr %4, align 4
  br label %.preheader

.preheader:                                       ; preds = %.preheader.preheader, %.preheader
  %8 = phi i32 [ %12, %.preheader ], [ %.pre, %.preheader.preheader ]
  %.021 = phi i64 [ %13, %.preheader ], [ %6, %.preheader.preheader ]
  %.11419 = phi ptr [ %10, %.preheader ], [ %.01323, %.preheader.preheader ]
  %9 = trunc i32 %8 to i8
  %10 = getelementptr inbounds nuw i8, ptr %.11419, i64 1
  store i8 %9, ptr %.11419, align 1
  %11 = load i32, ptr %4, align 4
  %12 = lshr i32 %11, 8
  store i32 %12, ptr %4, align 4
  %13 = add i64 %.021, -1
  %.not18 = icmp eq i64 %13, 0
  br i1 %.not18, label %.loopexit, label %.preheader, !llvm.loop !7

._crit_edge:                                      ; preds = %.lr.ph, %.loopexit, %3
  %.015 = phi i32 [ 43, %3 ], [ %7, %.lr.ph ], [ 0, %.loopexit ]
  ret i32 %.015
}